target datalayout = "e-m:e-p270:32:32-p271:32:32-p272:64:64-i64:64-i128:128-f80:128-n8:16:32:64-S128"
target triple = "x86_64-pc-linux-gnu"

%struct._srt_stat_table = type { ptr, ptr, ptr, i32, ptr, ptr, ptr }
%struct._srt_procedure_t = type { i32, %struct._timestat_t, ptr }
%struct._timestat_t = type { i32, i32, i32, %struct.nstime_t, %struct.nstime_t, %struct.nstime_t, double }
%struct.nstime_t = type { i64, i32 }

@.str.6 = private unnamed_addr constant [21 x i8] c"Filter: %s and (%s)\0A\00", align 1
@.str.7 = private unnamed_addr constant [14 x i8] c"Filter: (%s)\0A\00", align 1
@.str.8 = private unnamed_addr constant [12 x i8] c"Filter: %s\0A\00", align 1
@.str.9 = private unnamed_addr constant [1 x i8] zeroinitializer, align 1
@.str.10 = private unnamed_addr constant [64 x i8] c"Index  %-22s Calls    Min SRT    Max SRT    Avg SRT    Sum SRT\0A\00", align 1
@.str.11 = private unnamed_addr constant [10 x i8] c"Procedure\00", align 1
@.str.12 = private unnamed_addr constant [52 x i8] c"%5d  %-22s %6u %3d.%06d %3d.%06d %3d.%06d %3d.%06d\0A\00", align 1
@.str.13 = private unnamed_addr constant [68 x i8] c"==================================================================\0A\00", align 1

; Function Attrs: null_pointer_is_valid sspstrong uwtable
define internal void @draw_srt_table_data(ptr noundef %0, i1 noundef zeroext %1, ptr noundef %2) #0 {
  %4 = alloca ptr, align 8
  %5 = alloca i8, align 1
  %6 = alloca ptr, align 8
  %7 = alloca i32, align 4
  %8 = alloca i64, align 8
  %9 = alloca i64, align 8
  store ptr %0, ptr %4, align 8
  %10 = zext i1 %1 to i8
  store i8 %10, ptr %5, align 1
  store ptr %2, ptr %6, align 8
  call void @llvm.lifetime.start.p0(i64 4, ptr %7) #8
  call void @llvm.lifetime.start.p0(i64 8, ptr %8) #8
  call void @llvm.lifetime.start.p0(i64 8, ptr %9) #8
  %11 = load ptr, ptr %4, align 8
  %12 = getelementptr inbounds nuw %struct._srt_stat_table, ptr %11, i32 0, i32 3
  %13 = load i32, ptr %12, align 8
  %14 = icmp sgt i32 %13, 0
  br i1 %14, label %15, label %62

15:                                               ; preds = %3
  %16 = load ptr, ptr %4, align 8
  %17 = getelementptr inbounds nuw %struct._srt_stat_table, ptr %16, i32 0, i32 2
  %18 = load ptr, ptr %17, align 8
  %19 = icmp ne ptr %18, null
  br i1 %19, label %20, label %29

20:                                               ; preds = %15
  %21 = load ptr, ptr %6, align 8
  %22 = icmp ne ptr %21, null
  br i1 %22, label %23, label %29

23:                                               ; preds = %20
  %24 = load ptr, ptr %4, align 8
  %25 = getelementptr inbounds nuw %struct._srt_stat_table, ptr %24, i32 0, i32 2
  %26 = load ptr, ptr %25, align 8
  %27 = load ptr, ptr %6, align 8
  %28 = call i32 (i32, ptr, ...) @__printf_chk(i32 noundef 2, ptr noundef @.str.6, ptr noundef %26, ptr noundef %27)
  br label %49

29:                                               ; preds = %20, %15
  %30 = load ptr, ptr %6, align 8
  %31 = icmp ne ptr %30, null
  br i1 %31, label %32, label %35

32:                                               ; preds = %29
  %33 = load ptr, ptr %6, align 8
  %34 = call i32 (i32, ptr, ...) @__printf_chk(i32 noundef 2, ptr noundef @.str.7, ptr noundef %33)
  br label %48

35:                                               ; preds = %29
  %36 = load ptr, ptr %4, align 8
  %37 = getelementptr inbounds nuw %struct._srt_stat_table, ptr %36, i32 0, i32 2
  %38 = load ptr, ptr %37, align 8
  %39 = icmp ne ptr %38, null
  br i1 %39, label %40, label %44

40:                                               ; preds = %35
  %41 = load ptr, ptr %4, align 8
  %42 = getelementptr inbounds nuw %struct._srt_stat_table, ptr %41, i32 0, i32 2
  %43 = load ptr, ptr %42, align 8
  br label %45

44:                                               ; preds = %35
  br label %45

45:                                               ; preds = %44, %40
  %46 = phi ptr [ %43, %40 ], [ @.str.9, %44 ]
  %47 = call i32 (i32, ptr, ...) @__printf_chk(i32 noundef 2, ptr noundef @.str.8, ptr noundef %46)
  br label %48

48:                                               ; preds = %45, %32
  br label %49

49:                                               ; preds = %48, %23
  %50 = load ptr, ptr %4, align 8
  %51 = getelementptr inbounds nuw %struct._srt_stat_table, ptr %50, i32 0, i32 4
  %52 = load ptr, ptr %51, align 8
  %53 = icmp ne ptr %52, null
  br i1 %53, label %54, label %58

54:                                               ; preds = %49
  %55 = load ptr, ptr %4, align 8
  %56 = getelementptr inbounds nuw %struct._srt_stat_table, ptr %55, i32 0, i32 4
  %57 = load ptr, ptr %56, align 8
  br label %59

58:                                               ; preds = %49
  br label %59

59:                                               ; preds = %58, %54
  %60 = phi ptr [ %57, %54 ], [ @.str.11, %58 ]
  %61 = call i32 (i32, ptr, ...) @__printf_chk(i32 noundef 2, ptr noundef @.str.10, ptr noundef %60)
  br label %62

62:                                               ; preds = %59, %3
  store i32 0, ptr %7, align 4
  br label %63

63:                                               ; preds = %199, %62
  %64 = load i32, ptr %7, align 4
  %65 = load ptr, ptr %4, align 8
  %66 = getelementptr inbounds nuw %struct._srt_stat_table, ptr %65, i32 0, i32 3
  %67 = load i32, ptr %66, align 8
  %68 = icmp slt i32 %64, %67
  br i1 %68, label %69, label %202

69:                                               ; preds = %63
  %70 = load ptr, ptr %4, align 8
  %71 = getelementptr inbounds nuw %struct._srt_stat_table, ptr %70, i32 0, i32 5
  %72 = load ptr, ptr %71, align 8
  %73 = load i32, ptr %7, align 4
  %74 = sext i32 %73 to i64
  %75 = getelementptr %struct._srt_procedure_t, ptr %72, i64 %74
  %76 = getelementptr inbounds nuw %struct._srt_procedure_t, ptr %75, i32 0, i32 1
  %77 = getelementptr inbounds nuw %struct._timestat_t, ptr %76, i32 0, i32 0
  %78 = load i32, ptr %77, align 8
  %79 = icmp eq i32 %78, 0
  br i1 %79, label %80, label %81

80:                                               ; preds = %69
  br label %199

81:                                               ; preds = %69
  %82 = load ptr, ptr %4, align 8
  %83 = getelementptr inbounds nuw %struct._srt_stat_table, ptr %82, i32 0, i32 5
  %84 = load ptr, ptr %83, align 8
  %85 = load i32, ptr %7, align 4
  %86 = sext i32 %85 to i64
  %87 = getelementptr %struct._srt_procedure_t, ptr %84, i64 %86
  %88 = getelementptr inbounds nuw %struct._srt_procedure_t, ptr %87, i32 0, i32 1
  %89 = getelementptr inbounds nuw %struct._timestat_t, ptr %88, i32 0, i32 5
  %90 = getelementptr inbounds nuw %struct.nstime_t, ptr %89, i32 0, i32 0
  %91 = load i64, ptr %90, align 8
  %92 = mul i64 %91, 1000000000
  %93 = load ptr, ptr %4, align 8
  %94 = getelementptr inbounds nuw %struct._srt_stat_table, ptr %93, i32 0, i32 5
  %95 = load ptr, ptr %94, align 8
  %96 = load i32, ptr %7, align 4
  %97 = sext i32 %96 to i64
  %98 = getelementptr %struct._srt_procedure_t, ptr %95, i64 %97
  %99 = getelementptr inbounds nuw %struct._srt_procedure_t, ptr %98, i32 0, i32 1
  %100 = getelementptr inbounds nuw %struct._timestat_t, ptr %99, i32 0, i32 5
  %101 = getelementptr inbounds nuw %struct.nstime_t, ptr %100, i32 0, i32 1
  %102 = load i32, ptr %101, align 8
  %103 = sext i32 %102 to i64
  %104 = add i64 %92, %103
  store i64 %104, ptr %8, align 8
  %105 = load i64, ptr %8, align 8
  %106 = add i64 %105, 500
  %107 = udiv i64 %106, 1000
  store i64 %107, ptr %9, align 8
  %108 = load i64, ptr %8, align 8
  %109 = load ptr, ptr %4, align 8
  %110 = getelementptr inbounds nuw %struct._srt_stat_table, ptr %109, i32 0, i32 5
  %111 = load ptr, ptr %110, align 8
  %112 = load i32, ptr %7, align 4
  %113 = sext i32 %112 to i64
  %114 = getelementptr %struct._srt_procedure_t, ptr %111, i64 %113
  %115 = getelementptr inbounds nuw %struct._srt_procedure_t, ptr %114, i32 0, i32 1
  %116 = getelementptr inbounds nuw %struct._timestat_t, ptr %115, i32 0, i32 0
  %117 = load i32, ptr %116, align 8
  %118 = zext i32 %117 to i64
  %119 = udiv i64 %108, %118
  %120 = add i64 %119, 500
  %121 = udiv i64 %120, 1000
  store i64 %121, ptr %8, align 8
  %122 = load i32, ptr %7, align 4
  %123 = load ptr, ptr %4, align 8
  %124 = getelementptr inbounds nuw %struct._srt_stat_table, ptr %123, i32 0, i32 5
  %125 = load ptr, ptr %124, align 8
  %126 = load i32, ptr %7, align 4
  %127 = sext i32 %126 to i64
  %128 = getelementptr %struct._srt_procedure_t, ptr %125, i64 %127
  %129 = getelementptr inbounds nuw %struct._srt_procedure_t, ptr %128, i32 0, i32 2
  %130 = load ptr, ptr %129, align 8
  %131 = load ptr, ptr %4, align 8
  %132 = getelementptr inbounds nuw %struct._srt_stat_table, ptr %131, i32 0, i32 5
  %133 = load ptr, ptr %132, align 8
  %134 = load i32, ptr %7, align 4
  %135 = sext i32 %134 to i64
  %136 = getelementptr %struct._srt_procedure_t, ptr %133, i64 %135
  %137 = getelementptr inbounds nuw %struct._srt_procedure_t, ptr %136, i32 0, i32 1
  %138 = getelementptr inbounds nuw %struct._timestat_t, ptr %137, i32 0, i32 0
  %139 = load i32, ptr %138, align 8
  %140 = load ptr, ptr %4, align 8
  %141 = getelementptr inbounds nuw %struct._srt_stat_table, ptr %140, i32 0, i32 5
  %142 = load ptr, ptr %141, align 8
  %143 = load i32, ptr %7, align 4
  %144 = sext i32 %143 to i64
  %145 = getelementptr %struct._srt_procedure_t, ptr %142, i64 %144
  %146 = getelementptr inbounds nuw %struct._srt_procedure_t, ptr %145, i32 0, i32 1
  %147 = getelementptr inbounds nuw %struct._timestat_t, ptr %146, i32 0, i32 3
  %148 = getelementptr inbounds nuw %struct.nstime_t, ptr %147, i32 0, i32 0
  %149 = load i64, ptr %148, align 8
  %150 = trunc i64 %149 to i32
  %151 = load ptr, ptr %4, align 8
  %152 = getelementptr inbounds nuw %struct._srt_stat_table, ptr %151, i32 0, i32 5
  %153 = load ptr, ptr %152, align 8
  %154 = load i32, ptr %7, align 4
  %155 = sext i32 %154 to i64
  %156 = getelementptr %struct._srt_procedure_t, ptr %153, i64 %155
  %157 = getelementptr inbounds nuw %struct._srt_procedure_t, ptr %156, i32 0, i32 1
  %158 = getelementptr inbounds nuw %struct._timestat_t, ptr %157, i32 0, i32 3
  %159 = getelementptr inbounds nuw %struct.nstime_t, ptr %158, i32 0, i32 1
  %160 = load i32, ptr %159, align 8
  %161 = add i32 %160, 500
  %162 = sdiv i32 %161, 1000
  %163 = load ptr, ptr %4, align 8
  %164 = getelementptr inbounds nuw %struct._srt_stat_table, ptr %163, i32 0, i32 5
  %165 = load ptr, ptr %164, align 8
  %166 = load i32, ptr %7, align 4
  %167 = sext i32 %166 to i64
  %168 = getelementptr %struct._srt_procedure_t, ptr %165, i64 %167
  %169 = getelementptr inbounds nuw %struct._srt_procedure_t, ptr %168, i32 0, i32 1
  %170 = getelementptr inbounds nuw %struct._timestat_t, ptr %169, i32 0, i32 4
  %171 = getelementptr inbounds nuw %struct.nstime_t, ptr %170, i32 0, i32 0
  %172 = load i64, ptr %171, align 8
  %173 = trunc i64 %172 to i32
  %174 = load ptr, ptr %4, align 8
  %175 = getelementptr inbounds nuw %struct._srt_stat_table, ptr %174, i32 0, i32 5
  %176 = load ptr, ptr %175, align 8
  %177 = load i32, ptr %7, align 4
  %178 = sext i32 %177 to i64
  %179 = getelementptr %struct._srt_procedure_t, ptr %176, i64 %178
  %180 = getelementptr inbounds nuw %struct._srt_procedure_t, ptr %179, i32 0, i32 1
  %181 = getelementptr inbounds nuw %struct._timestat_t, ptr %180, i32 0, i32 4
  %182 = getelementptr inbounds nuw %struct.nstime_t, ptr %181, i32 0, i32 1
  %183 = load i32, ptr %182, align 8
  %184 = add i32 %183, 500
  %185 = sdiv i32 %184, 1000
  %186 = load i64, ptr %8, align 8
  %187 = udiv i64 %186, 1000000
  %188 = trunc i64 %187 to i32
  %189 = load i64, ptr %8, align 8
  %190 = urem i64 %189, 1000000
  %191 = trunc i64 %190 to i32
  %192 = load i64, ptr %9, align 8
  %193 = udiv i64 %192, 1000000
  %194 = trunc i64 %193 to i32
  %195 = load i64, ptr %9, align 8
  %196 = urem i64 %195, 1000000
  %197 = trunc i64 %196 to i32
  %198 = call i32 (i32, ptr, ...) @__printf_chk(i32 noundef 2, ptr noundef @.str.12, i32 noundef %122, ptr noundef %130, i32 noundef %139, i32 noundef %150, i32 noundef %162, i32 noundef %173, i32 noundef %185, i32 noundef %188, i32 noundef %191, i32 noundef %194, i32 noundef %197)
  br label %199

199:                                              ; preds = %81, %80
  %200 = load i32, ptr %7, align 4
  %201 = add i32 %200, 1
  store i32 %201, ptr %7, align 4
  br label %63, !llvm.loop !11

202:                                              ; preds = %63
  %203 = load i8, ptr %5, align 1, !range !7, !noundef !8
  %204 = trunc i8 %203 to i1
  br i1 %204, label %205, label %207

205:                                              ; preds = %202
  %206 = call i32 (i32, ptr, ...) @__printf_chk(i32 noundef 2, ptr noundef @.str.13)
  br label %207

207:                                              ; preds = %205, %202
  call void @llvm.lifetime.end.p0(i64 8, ptr %9) #8
  call void @llvm.lifetime.end.p0(i64 8, ptr %8) #8
  call void @llvm.lifetime.end.p0(i64 4, ptr %7) #8
  ret void
}