; Function Attrs: null_pointer_is_valid sspstrong uwtable
define internal fastcc void @draw_srt_table_data(ptr noundef readonly captures(none) %0, i1 noundef zeroext %1, ptr noundef %2) unnamed_addr #0 {
  %4 = getelementptr inbounds nuw i8, ptr %0, i64 24
  %5 = load i32, ptr %4, align 8
  %6 = icmp sgt i32 %5, 0
  br i1 %6, label %7, label %._crit_edge

7:                                                ; preds = %3
  %8 = getelementptr inbounds nuw i8, ptr %0, i64 16
  %9 = load ptr, ptr %8, align 8
  %10 = icmp ne ptr %9, null
  %11 = icmp ne ptr %2, null
  %or.cond = and i1 %11, %10
  br i1 %or.cond, label %12, label %14

12:                                               ; preds = %7
  %13 = tail call i32 (i32, ptr, ...) @__printf_chk(i32 noundef 2, ptr noundef nonnull @.str.6, ptr noundef nonnull %9, ptr noundef nonnull %2)
  br label %19

14:                                               ; preds = %7
  br i1 %11, label %15, label %17

15:                                               ; preds = %14
  %16 = tail call i32 (i32, ptr, ...) @__printf_chk(i32 noundef 2, ptr noundef nonnull @.str.7, ptr noundef nonnull %2)
  br label %19

17:                                               ; preds = %14
  %spec.select = select i1 %10, ptr %9, ptr @.str.9
  %18 = tail call i32 (i32, ptr, ...) @__printf_chk(i32 noundef 2, ptr noundef nonnull @.str.8, ptr noundef nonnull %spec.select)
  br label %19

19:                                               ; preds = %12, %17, %15
  %20 = getelementptr inbounds nuw i8, ptr %0, i64 32
  %21 = load ptr, ptr %20, align 8
  %.not = icmp eq ptr %21, null
  %spec.select47 = select i1 %.not, ptr @.str.11, ptr %21
  %22 = tail call i32 (i32, ptr, ...) @__printf_chk(i32 noundef 2, ptr noundef nonnull @.str.10, ptr noundef nonnull %spec.select47)
  %.pre = load i32, ptr %4, align 8
  %23 = icmp sgt i32 %.pre, 0
  br i1 %23, label %.lr.ph, label %._crit_edge

.lr.ph:                                           ; preds = %19
  %24 = getelementptr inbounds nuw i8, ptr %0, i64 40
  br label %25

25:                                               ; preds = %.lr.ph, %72
  %26 = phi i32 [ %.pre, %.lr.ph ], [ %73, %72 ]
  %indvars.iv = phi i64 [ 0, %.lr.ph ], [ %indvars.iv.next, %72 ]
  %27 = load ptr, ptr %24, align 8
  %28 = getelementptr %struct._srt_procedure_t, ptr %27, i64 %indvars.iv
  %29 = getelementptr inbounds nuw i8, ptr %28, i64 8
  %30 = load i32, ptr %29, align 8
  %31 = icmp eq i32 %30, 0
  br i1 %31, label %72, label %32

32:                                               ; preds = %25
  %33 = getelementptr inbounds nuw i8, ptr %28, i64 56
  %34 = load i64, ptr %33, align 8
  %35 = mul i64 %34, 1000000000
  %36 = getelementptr inbounds nuw i8, ptr %28, i64 64
  %37 = load i32, ptr %36, align 8
  %38 = sext i32 %37 to i64
  %39 = add i64 %35, %38
  %40 = add i64 %39, 500
  %41 = udiv i64 %40, 1000
  %42 = zext i32 %30 to i64
  %43 = udiv i64 %39, %42
  %44 = add i64 %43, 500
  %45 = udiv i64 %44, 1000
  %46 = getelementptr inbounds nuw i8, ptr %28, i64 80
  %47 = load ptr, ptr %46, align 8
  %48 = getelementptr inbounds nuw i8, ptr %28, i64 24
  %49 = load i64, ptr %48, align 8
  %50 = trunc i64 %49 to i32
  %51 = getelementptr inbounds nuw i8, ptr %28, i64 32
  %52 = load i32, ptr %51, align 8
  %53 = add i32 %52, 500
  %54 = sdiv i32 %53, 1000
  %55 = getelementptr inbounds nuw i8, ptr %28, i64 40
  %56 = load i64, ptr %55, align 8
  %57 = trunc i64 %56 to i32
  %58 = getelementptr inbounds nuw i8, ptr %28, i64 48
  %59 = load i32, ptr %58, align 8
  %60 = add i32 %59, 500
  %61 = sdiv i32 %60, 1000
  %62 = udiv i64 %44, 1000000000
  %63 = trunc i64 %62 to i32
  %64 = urem i64 %45, 1000000
  %65 = trunc nuw nsw i64 %64 to i32
  %66 = udiv i64 %40, 1000000000
  %67 = trunc i64 %66 to i32
  %68 = urem i64 %41, 1000000
  %69 = trunc nuw nsw i64 %68 to i32
  %70 = trunc nuw nsw i64 %indvars.iv to i32
  %71 = tail call i32 (i32, ptr, ...) @__printf_chk(i32 noundef 2, ptr noundef nonnull @.str.12, i32 noundef %70, ptr noundef %47, i32 noundef %30, i32 noundef %50, i32 noundef %54, i32 noundef %57, i32 noundef %61, i32 noundef %63, i32 noundef %65, i32 noundef %67, i32 noundef %69)
  %.pre50 = load i32, ptr %4, align 8
  br label %72

72:                                               ; preds = %25, %32
  %73 = phi i32 [ %26, %25 ], [ %.pre50, %32 ]
  %indvars.iv.next = add nuw nsw i64 %indvars.iv, 1
  %74 = sext i32 %73 to i64
  %75 = icmp slt i64 %indvars.iv.next, %74
  br i1 %75, label %25, label %._crit_edge, !llvm.loop !9

._crit_edge:                                      ; preds = %72, %3, %19
  br i1 %1, label %76, label %78

76:                                               ; preds = %._crit_edge
  %77 = tail call i32 (i32, ptr, ...) @__printf_chk(i32 noundef 2, ptr noundef nonnull @.str.13)
  br label %78

78:                                               ; preds = %76, %._crit_edge
  ret void
}